target datalayout = "e-m:e-p270:32:32-p271:32:32-p272:64:64-i64:64-i128:128-f80:128-n8:16:32:64-S128"
target triple = "x86_64-pc-linux-gnu"

%struct.strvec = type { ptr, i64, i64 }
%struct.strbuf = type { i64, i64, ptr }
%struct.commit = type { %struct.object, i64, ptr, ptr, i32 }
%struct.object = type { i32, %struct.object_id }
%struct.object_id = type { [32 x i8], i32 }
%struct.hashmap = type { ptr, ptr, ptr, i32, i32, i32, i32, i8 }
%struct.oidset = type { %struct.kh_oid_set }
%struct.kh_oid_set = type { i32, i32, i32, i32, ptr, ptr, ptr }
%struct.commit_list = type { ptr, ptr }
%struct.rev_info = type { ptr, %struct.object_array, ptr, %struct.object_array, %struct.rev_cmdline_info, %struct.list_objects_filter_options, %struct.ref_exclusions, ptr, ptr, ptr, %struct.pathspec, i32, i32, i32, i32, i64, i32, i32, %struct.date_mode, i32, i32, i32, i32, ptr, i32, i32, ptr, ptr, i32, ptr, ptr, %struct.ident_split, ptr, i32, ptr, ptr, ptr, i32, i32, i32, ptr, %struct.grep_opt, ptr, i32, i32, i64, i64, i64, i32, i32, ptr, ptr, ptr, %struct.diff_options, %struct.diff_options, ptr, %struct.decoration, %struct.decoration, %struct.decoration, %struct.display_notes_opt, ptr, ptr, ptr, ptr, ptr, i32, ptr, i32, i32, i32, %struct.decoration, ptr, ptr, ptr, ptr, ptr, ptr, ptr, i32, ptr, i32, ptr, %struct.oidset }
%struct.object_array = type { i32, i32, ptr }
%struct.rev_cmdline_info = type { i32, i32, ptr }
%struct.list_objects_filter_options = type { %struct.strbuf, i32, i8, ptr, i64, i64, i32, i64, i64, ptr }
%struct.ref_exclusions = type { %struct.string_list, %struct.strvec, i8 }
%struct.string_list = type { ptr, i64, i64, i8, ptr }
%struct.pathspec = type { i32, i8, i32, i32, ptr }
%struct.date_mode = type { i32, i32, ptr }
%struct.ident_split = type { ptr, ptr, ptr, ptr, ptr, ptr, ptr, ptr }
%struct.grep_opt = type { ptr, ptr, ptr, ptr, ptr, ptr, i32, i32, i32, i32, i32, i32, i32, i32, i32, i32, i32, i32, i32, i32, i32, i32, i32, i32, i32, i32, i32, i32, i32, i32, i32, i32, [9 x [75 x i8]], i32, i32, i32, i32, i32, i32, i32, ptr, ptr, ptr }
%struct.diff_options = type { ptr, ptr, i32, i32, ptr, i32, ptr, i64, i64, ptr, ptr, ptr, ptr, %struct.diff_flags, i32, i32, i32, i32, i32, i32, i32, i32, i32, i32, i32, i32, i32, i32, i32, i32, i32, i32, i32, i32, i32, i32, ptr, i32, ptr, i32, i32, ptr, i64, i64, i32, i32, i32, i32, ptr, i32, i32, ptr, i32, i32, ptr, ptr, i32, [3 x i8], %struct.pathspec, ptr, ptr, ptr, ptr, ptr, ptr, ptr, ptr, i32, ptr, i32, i32, ptr, ptr, i32 }
%struct.diff_flags = type { i32, i32, i32, i32, i32, i32, i32, i32, i32, i32, i32, i32, i32, i32, i32, i32, i32, i32, i32, i32, i32, i32, i32, i32, i32, i32, i32, i32, i32, i32, i32, i32, i32, i32, i32 }
%struct.display_notes_opt = type { i32, %struct.string_list }
%struct.decoration = type { ptr, i32, i32, ptr }
%struct.repository = type { ptr, ptr, ptr, ptr, ptr, %struct.strmap, %struct.strmap, %struct.repo_path_cache, ptr, ptr, ptr, ptr, %struct.repo_settings, ptr, ptr, ptr, ptr, ptr, ptr, i32, i32, i32, ptr, ptr, i32, i32, i8 }
%struct.strmap = type { %struct.hashmap, ptr, i8 }
%struct.repo_path_cache = type { ptr, ptr, ptr, ptr, ptr, ptr, ptr }
%struct.repo_settings = type { i32, i32, i32, i32, i32, i32, i32, i32, i32, i32, i32, i32, ptr, i32, i32, i32, i32, i32, i32, i32, i64, i64, i64 }
%struct.object_array_entry = type { ptr, ptr, ptr, i32 }

; Function Attrs: nounwind uwtable
define internal void @gc_boundary(ptr noundef %0) #0 {
  %2 = alloca ptr, align 8
  store ptr %0, ptr %2, align 8, !tbaa !526
  %3 = load ptr, ptr %2, align 8, !tbaa !526
  %4 = getelementptr inbounds nuw %struct.object_array, ptr %3, i32 0, i32 0
  %5 = load i32, ptr %4, align 8, !tbaa !322
  %6 = load ptr, ptr %2, align 8, !tbaa !526
  %7 = getelementptr inbounds nuw %struct.object_array, ptr %6, i32 0, i32 1
  %8 = load i32, ptr %7, align 4, !tbaa !529
  %9 = icmp eq i32 %5, %8
  br i1 %9, label %10, label %12

10:                                               ; preds = %1
  %11 = load ptr, ptr %2, align 8, !tbaa !526
  call void @object_array_filter(ptr noundef %11, ptr noundef @entry_unshown, ptr noundef null)
  br label %12

12:                                               ; preds = %10, %1
  ret void
}

; Function Attrs: nounwind uwtable
define internal void @create_boundary_commit_list(ptr noundef %0) #0 {
  %2 = alloca ptr, align 8
  %3 = alloca i32, align 4
  %4 = alloca ptr, align 8
  %5 = alloca ptr, align 8
  %6 = alloca ptr, align 8
  store ptr %0, ptr %2, align 8, !tbaa !88
  call void @llvm.lifetime.start.p0(i64 4, ptr %3) #12
  call void @llvm.lifetime.start.p0(i64 8, ptr %4) #12
  call void @llvm.lifetime.start.p0(i64 8, ptr %5) #12
  %7 = load ptr, ptr %2, align 8, !tbaa !88
  %8 = getelementptr inbounds nuw %struct.rev_info, ptr %7, i32 0, i32 3
  store ptr %8, ptr %5, align 8, !tbaa !526
  call void @llvm.lifetime.start.p0(i64 8, ptr %6) #12
  %9 = load ptr, ptr %5, align 8, !tbaa !526
  %10 = getelementptr inbounds nuw %struct.object_array, ptr %9, i32 0, i32 2
  %11 = load ptr, ptr %10, align 8, !tbaa !323
  store ptr %11, ptr %6, align 8, !tbaa !324
  %12 = load ptr, ptr %2, align 8, !tbaa !88
  %13 = getelementptr inbounds nuw %struct.rev_info, ptr %12, i32 0, i32 0
  %14 = load ptr, ptr %13, align 8, !tbaa !302
  call void @free_commit_list(ptr noundef %14)
  %15 = load ptr, ptr %2, align 8, !tbaa !88
  %16 = getelementptr inbounds nuw %struct.rev_info, ptr %15, i32 0, i32 0
  store ptr null, ptr %16, align 8, !tbaa !302
  store i32 0, ptr %3, align 4, !tbaa !9
  br label %17

17:                                               ; preds = %64, %1
  %18 = load i32, ptr %3, align 4, !tbaa !9
  %19 = load ptr, ptr %5, align 8, !tbaa !526
  %20 = getelementptr inbounds nuw %struct.object_array, ptr %19, i32 0, i32 0
  %21 = load i32, ptr %20, align 8, !tbaa !322
  %22 = icmp ult i32 %18, %21
  br i1 %22, label %23, label %67

23:                                               ; preds = %17
  %24 = load ptr, ptr %6, align 8, !tbaa !324
  %25 = load i32, ptr %3, align 4, !tbaa !9
  %26 = zext i32 %25 to i64
  %27 = getelementptr inbounds nuw %struct.object_array_entry, ptr %24, i64 %26
  %28 = getelementptr inbounds nuw %struct.object_array_entry, ptr %27, i32 0, i32 0
  %29 = load ptr, ptr %28, align 8, !tbaa !327
  store ptr %29, ptr %4, align 8, !tbaa !24
  %30 = load ptr, ptr %4, align 8, !tbaa !24
  %31 = icmp ne ptr %30, null
  br i1 %31, label %33, label %32

32:                                               ; preds = %23
  br label %64

33:                                               ; preds = %23
  %34 = load ptr, ptr %4, align 8, !tbaa !24
  %35 = getelementptr inbounds nuw %struct.commit, ptr %34, i32 0, i32 0
  %36 = load i32, ptr %35, align 8
  %37 = lshr i32 %36, 4
  %38 = and i32 %37, 64
  %39 = icmp ne i32 %38, 0
  br i1 %39, label %41, label %40

40:                                               ; preds = %33
  br label %64

41:                                               ; preds = %33
  %42 = load ptr, ptr %4, align 8, !tbaa !24
  %43 = getelementptr inbounds nuw %struct.commit, ptr %42, i32 0, i32 0
  %44 = load i32, ptr %43, align 8
  %45 = lshr i32 %44, 4
  %46 = and i32 %45, 40
  %47 = icmp ne i32 %46, 0
  br i1 %47, label %48, label %49

48:                                               ; preds = %41
  br label %64

49:                                               ; preds = %41
  %50 = load ptr, ptr %4, align 8, !tbaa !24
  %51 = getelementptr inbounds nuw %struct.commit, ptr %50, i32 0, i32 0
  %52 = load i32, ptr %51, align 8
  %53 = lshr i32 %52, 4
  %54 = or i32 %53, 32
  %55 = load i32, ptr %51, align 8
  %56 = and i32 %54, 268435455
  %57 = shl i32 %56, 4
  %58 = and i32 %55, 15
  %59 = or i32 %58, %57
  store i32 %59, ptr %51, align 8
  %60 = load ptr, ptr %4, align 8, !tbaa !24
  %61 = load ptr, ptr %2, align 8, !tbaa !88
  %62 = getelementptr inbounds nuw %struct.rev_info, ptr %61, i32 0, i32 0
  %63 = call ptr @commit_list_insert(ptr noundef %60, ptr noundef %62)
  br label %64

64:                                               ; preds = %49, %48, %40, %32
  %65 = load i32, ptr %3, align 4, !tbaa !9
  %66 = add i32 %65, 1
  store i32 %66, ptr %3, align 4, !tbaa !9
  br label %17, !llvm.loop !528

67:                                               ; preds = %17
  %68 = load ptr, ptr %2, align 8, !tbaa !88
  %69 = getelementptr inbounds nuw %struct.rev_info, ptr %68, i32 0, i32 0
  %70 = load ptr, ptr %2, align 8, !tbaa !88
  %71 = getelementptr inbounds nuw %struct.rev_info, ptr %70, i32 0, i32 13
  %72 = load i32, ptr %71, align 8, !tbaa !211
  call void @sort_in_topological_order(ptr noundef %69, i32 noundef %72)
  call void @llvm.lifetime.end.p0(i64 8, ptr %6) #12
  call void @llvm.lifetime.end.p0(i64 8, ptr %5) #12
  call void @llvm.lifetime.end.p0(i64 8, ptr %4) #12
  call void @llvm.lifetime.end.p0(i64 4, ptr %3) #12
  ret void
}

; Function Attrs: nounwind uwtable
define internal ptr @get_revision_internal(ptr noundef %0) #0 {
  %2 = alloca ptr, align 8
  %3 = alloca ptr, align 8
  %4 = alloca ptr, align 8
  %5 = alloca ptr, align 8
  %6 = alloca i32, align 4
  %7 = alloca ptr, align 8
  store ptr %0, ptr %3, align 8, !tbaa !88
  call void @llvm.lifetime.start.p0(i64 8, ptr %4) #12
  store ptr null, ptr %4, align 8, !tbaa !24
  call void @llvm.lifetime.start.p0(i64 8, ptr %5) #12
  %8 = load ptr, ptr %3, align 8, !tbaa !88
  %9 = getelementptr inbounds nuw %struct.rev_info, ptr %8, i32 0, i32 15
  %10 = load i64, ptr %9, align 8
  %11 = lshr i64 %10, 22
  %12 = and i64 %11, 3
  %13 = trunc i64 %12 to i32
  %14 = icmp eq i32 %13, 2
  br i1 %14, label %15, label %34

15:                                               ; preds = %1
  %16 = load ptr, ptr %3, align 8, !tbaa !88
  %17 = getelementptr inbounds nuw %struct.rev_info, ptr %16, i32 0, i32 0
  %18 = call ptr @pop_commit(ptr noundef %17)
  store ptr %18, ptr %4, align 8, !tbaa !24
  %19 = load ptr, ptr %4, align 8, !tbaa !24
  %20 = icmp ne ptr %19, null
  br i1 %20, label %21, label %32

21:                                               ; preds = %15
  %22 = load ptr, ptr %4, align 8, !tbaa !24
  %23 = getelementptr inbounds nuw %struct.commit, ptr %22, i32 0, i32 0
  %24 = load i32, ptr %23, align 8
  %25 = lshr i32 %24, 4
  %26 = or i32 %25, 8
  %27 = load i32, ptr %23, align 8
  %28 = and i32 %26, 268435455
  %29 = shl i32 %28, 4
  %30 = and i32 %27, 15
  %31 = or i32 %30, %29
  store i32 %31, ptr %23, align 8
  br label %32

32:                                               ; preds = %21, %15
  %33 = load ptr, ptr %4, align 8, !tbaa !24
  store ptr %33, ptr %2, align 8
  store i32 1, ptr %6, align 4
  br label %157

34:                                               ; preds = %1
  %35 = load ptr, ptr %3, align 8, !tbaa !88
  %36 = getelementptr inbounds nuw %struct.rev_info, ptr %35, i32 0, i32 44
  %37 = load i32, ptr %36, align 4, !tbaa !217
  %38 = icmp ne i32 %37, 0
  br i1 %38, label %39, label %79

39:                                               ; preds = %34
  %40 = load ptr, ptr %3, align 8, !tbaa !88
  %41 = call ptr @get_revision_1(ptr noundef %40)
  store ptr %41, ptr %4, align 8, !tbaa !24
  %42 = load ptr, ptr %4, align 8, !tbaa !24
  %43 = icmp ne ptr %42, null
  br i1 %43, label %44, label %68

44:                                               ; preds = %39
  br label %45

45:                                               ; preds = %60, %44
  %46 = load ptr, ptr %3, align 8, !tbaa !88
  %47 = getelementptr inbounds nuw %struct.rev_info, ptr %46, i32 0, i32 43
  %48 = load i32, ptr %47, align 8, !tbaa !216
  %49 = icmp sgt i32 %48, 0
  br i1 %49, label %50, label %67

50:                                               ; preds = %45
  %51 = load ptr, ptr %3, align 8, !tbaa !88
  %52 = getelementptr inbounds nuw %struct.rev_info, ptr %51, i32 0, i32 43
  %53 = load i32, ptr %52, align 8, !tbaa !216
  %54 = add nsw i32 %53, -1
  store i32 %54, ptr %52, align 8, !tbaa !216
  %55 = load ptr, ptr %3, align 8, !tbaa !88
  %56 = call ptr @get_revision_1(ptr noundef %55)
  store ptr %56, ptr %4, align 8, !tbaa !24
  %57 = load ptr, ptr %4, align 8, !tbaa !24
  %58 = icmp ne ptr %57, null
  br i1 %58, label %60, label %59

59:                                               ; preds = %50
  br label %67

60:                                               ; preds = %50
  %61 = load ptr, ptr %3, align 8, !tbaa !88
  %62 = getelementptr inbounds nuw %struct.rev_info, ptr %61, i32 0, i32 2
  %63 = load ptr, ptr %62, align 8, !tbaa !105
  %64 = getelementptr inbounds nuw %struct.repository, ptr %63, i32 0, i32 3
  %65 = load ptr, ptr %64, align 8, !tbaa !393
  %66 = load ptr, ptr %4, align 8, !tbaa !24
  call void @free_commit_buffer(ptr noundef %65, ptr noundef %66)
  br label %45, !llvm.loop !394

67:                                               ; preds = %59, %45
  br label %68

68:                                               ; preds = %67, %39
  %69 = load ptr, ptr %3, align 8, !tbaa !88
  %70 = getelementptr inbounds nuw %struct.rev_info, ptr %69, i32 0, i32 44
  %71 = load i32, ptr %70, align 4, !tbaa !217
  %72 = icmp sgt i32 %71, 0
  br i1 %72, label %73, label %78

73:                                               ; preds = %68
  %74 = load ptr, ptr %3, align 8, !tbaa !88
  %75 = getelementptr inbounds nuw %struct.rev_info, ptr %74, i32 0, i32 44
  %76 = load i32, ptr %75, align 4, !tbaa !217
  %77 = add nsw i32 %76, -1
  store i32 %77, ptr %75, align 4, !tbaa !217
  br label %78

78:                                               ; preds = %73, %68
  br label %79

79:                                               ; preds = %78, %34
  %80 = load ptr, ptr %4, align 8, !tbaa !24
  %81 = icmp ne ptr %80, null
  br i1 %81, label %82, label %93

82:                                               ; preds = %79
  %83 = load ptr, ptr %4, align 8, !tbaa !24
  %84 = getelementptr inbounds nuw %struct.commit, ptr %83, i32 0, i32 0
  %85 = load i32, ptr %84, align 8
  %86 = lshr i32 %85, 4
  %87 = or i32 %86, 8
  %88 = load i32, ptr %84, align 8
  %89 = and i32 %87, 268435455
  %90 = shl i32 %89, 4
  %91 = and i32 %88, 15
  %92 = or i32 %91, %90
  store i32 %92, ptr %84, align 8
  br label %93

93:                                               ; preds = %82, %79
  %94 = load ptr, ptr %3, align 8, !tbaa !88
  %95 = getelementptr inbounds nuw %struct.rev_info, ptr %94, i32 0, i32 15
  %96 = load i64, ptr %95, align 8
  %97 = lshr i64 %96, 22
  %98 = and i64 %97, 3
  %99 = trunc i64 %98 to i32
  %100 = icmp ne i32 %99, 0
  br i1 %100, label %103, label %101

101:                                              ; preds = %93
  %102 = load ptr, ptr %4, align 8, !tbaa !24
  store ptr %102, ptr %2, align 8
  store i32 1, ptr %6, align 4
  br label %157

103:                                              ; preds = %93
  %104 = load ptr, ptr %4, align 8, !tbaa !24
  %105 = icmp ne ptr %104, null
  br i1 %105, label %115, label %106

106:                                              ; preds = %103
  %107 = load ptr, ptr %3, align 8, !tbaa !88
  %108 = getelementptr inbounds nuw %struct.rev_info, ptr %107, i32 0, i32 15
  %109 = load i64, ptr %108, align 8
  %110 = and i64 %109, -12582913
  %111 = or i64 %110, 8388608
  store i64 %111, ptr %108, align 8
  %112 = load ptr, ptr %3, align 8, !tbaa !88
  call void @create_boundary_commit_list(ptr noundef %112)
  %113 = load ptr, ptr %3, align 8, !tbaa !88
  %114 = call ptr @get_revision_internal(ptr noundef %113)
  store ptr %114, ptr %2, align 8
  store i32 1, ptr %6, align 4
  br label %157

115:                                              ; preds = %103
  %116 = load ptr, ptr %4, align 8, !tbaa !24
  %117 = getelementptr inbounds nuw %struct.commit, ptr %116, i32 0, i32 2
  %118 = load ptr, ptr %117, align 8, !tbaa !90
  store ptr %118, ptr %5, align 8, !tbaa !91
  br label %119

119:                                              ; preds = %151, %115
  %120 = load ptr, ptr %5, align 8, !tbaa !91
  %121 = icmp ne ptr %120, null
  br i1 %121, label %122, label %155

122:                                              ; preds = %119
  call void @llvm.lifetime.start.p0(i64 8, ptr %7) #12
  %123 = load ptr, ptr %5, align 8, !tbaa !91
  %124 = getelementptr inbounds nuw %struct.commit_list, ptr %123, i32 0, i32 0
  %125 = load ptr, ptr %124, align 8, !tbaa !92
  %126 = getelementptr inbounds nuw %struct.commit, ptr %125, i32 0, i32 0
  store ptr %126, ptr %7, align 8, !tbaa !37
  %127 = load ptr, ptr %7, align 8, !tbaa !37
  %128 = load i32, ptr %127, align 4
  %129 = lshr i32 %128, 4
  %130 = and i32 %129, 72
  %131 = icmp ne i32 %130, 0
  br i1 %131, label %132, label %133

132:                                              ; preds = %122
  store i32 6, ptr %6, align 4
  br label %148

133:                                              ; preds = %122
  %134 = load ptr, ptr %7, align 8, !tbaa !37
  %135 = load i32, ptr %134, align 4
  %136 = lshr i32 %135, 4
  %137 = or i32 %136, 64
  %138 = load i32, ptr %134, align 4
  %139 = and i32 %137, 268435455
  %140 = shl i32 %139, 4
  %141 = and i32 %138, 15
  %142 = or i32 %141, %140
  store i32 %142, ptr %134, align 4
  %143 = load ptr, ptr %3, align 8, !tbaa !88
  %144 = getelementptr inbounds nuw %struct.rev_info, ptr %143, i32 0, i32 3
  call void @gc_boundary(ptr noundef %144)
  %145 = load ptr, ptr %7, align 8, !tbaa !37
  %146 = load ptr, ptr %3, align 8, !tbaa !88
  %147 = getelementptr inbounds nuw %struct.rev_info, ptr %146, i32 0, i32 3
  call void @add_object_array(ptr noundef %145, ptr noundef null, ptr noundef %147)
  store i32 0, ptr %6, align 4
  br label %148

148:                                              ; preds = %133, %132
  call void @llvm.lifetime.end.p0(i64 8, ptr %7) #12
  %149 = load i32, ptr %6, align 4
  switch i32 %149, label %159 [
    i32 0, label %150
    i32 6, label %151
  ]

150:                                              ; preds = %148
  br label %151

151:                                              ; preds = %150, %148
  %152 = load ptr, ptr %5, align 8, !tbaa !91
  %153 = getelementptr inbounds nuw %struct.commit_list, ptr %152, i32 0, i32 1
  %154 = load ptr, ptr %153, align 8, !tbaa !94
  store ptr %154, ptr %5, align 8, !tbaa !91
  br label %119, !llvm.loop !395

155:                                              ; preds = %119
  %156 = load ptr, ptr %4, align 8, !tbaa !24
  store ptr %156, ptr %2, align 8
  store i32 1, ptr %6, align 4
  br label %157

157:                                              ; preds = %155, %106, %101, %32
  call void @llvm.lifetime.end.p0(i64 8, ptr %5) #12
  call void @llvm.lifetime.end.p0(i64 8, ptr %4) #12
  %158 = load ptr, ptr %2, align 8
  ret ptr %158

159:                                              ; preds = %148
  unreachable
}