; Function Attrs: nounwind uwtable
define internal fastcc ptr @get_revision_internal(ptr noundef %0) unnamed_addr #2 {
  %2 = getelementptr inbounds nuw i8, ptr %0, i64 288
  %3 = load i64, ptr %2, align 8
  %4 = and i64 %3, 12582912
  %5 = icmp eq i64 %4, 8388608
  br i1 %5, label %tailrecurse._crit_edge, label %.lr.ph68

.lr.ph68:                                         ; preds = %1
  %6 = getelementptr inbounds nuw i8, ptr %0, i64 1412
  %7 = getelementptr inbounds nuw i8, ptr %0, i64 1408
  %8 = getelementptr inbounds nuw i8, ptr %0, i64 24
  %9 = getelementptr inbounds nuw i8, ptr %0, i64 32
  %10 = getelementptr inbounds nuw i8, ptr %0, i64 40
  %11 = getelementptr inbounds nuw i8, ptr %0, i64 280
  br label %16

tailrecurse._crit_edge:                           ; preds = %create_boundary_commit_list.exit, %1
  %12 = tail call ptr @pop_commit(ptr noundef nonnull %0) #26
  %.not50 = icmp eq ptr %12, null
  br i1 %.not50, label %.loopexit, label %13

13:                                               ; preds = %tailrecurse._crit_edge
  %14 = load i32, ptr %12, align 8
  %15 = or i32 %14, 128
  store i32 %15, ptr %12, align 8
  br label %.loopexit

16:                                               ; preds = %.lr.ph68, %create_boundary_commit_list.exit
  %17 = phi i64 [ %3, %.lr.ph68 ], [ %65, %create_boundary_commit_list.exit ]
  %18 = load i32, ptr %6, align 4, !tbaa !210
  %.not = icmp eq i32 %18, 0
  br i1 %.not, label %.thread55, label %19

19:                                               ; preds = %16
  %20 = tail call fastcc ptr @get_revision_1(ptr noundef nonnull %0)
  %.not44 = icmp eq ptr %20, null
  br i1 %.not44, label %.loopexit64, label %.preheader

.preheader:                                       ; preds = %19
  %21 = load i32, ptr %7, align 8, !tbaa !211
  %22 = icmp sgt i32 %21, 0
  br i1 %22, label %.lr.ph, label %.loopexit64

.lr.ph:                                           ; preds = %.preheader, %26
  %23 = phi i32 [ %30, %26 ], [ %21, %.preheader ]
  %24 = add nsw i32 %23, -1
  store i32 %24, ptr %7, align 8, !tbaa !211
  %25 = tail call fastcc ptr @get_revision_1(ptr noundef nonnull %0)
  %.not45 = icmp eq ptr %25, null
  br i1 %.not45, label %.loopexit64, label %26

26:                                               ; preds = %.lr.ph
  %27 = load ptr, ptr %8, align 8, !tbaa !73
  %28 = getelementptr inbounds nuw i8, ptr %27, i64 24
  %29 = load ptr, ptr %28, align 8, !tbaa !401
  tail call void @free_commit_buffer(ptr noundef %29, ptr noundef nonnull %25) #26
  %30 = load i32, ptr %7, align 8, !tbaa !211
  %31 = icmp sgt i32 %30, 0
  br i1 %31, label %.lr.ph, label %.loopexit64, !llvm.loop !402

.loopexit64:                                      ; preds = %.lr.ph, %26, %.preheader, %19
  %.1 = phi ptr [ null, %19 ], [ %20, %.preheader ], [ null, %.lr.ph ], [ %25, %26 ]
  %32 = load i32, ptr %6, align 4, !tbaa !210
  %33 = icmp sgt i32 %32, 0
  br i1 %33, label %34, label %36

34:                                               ; preds = %.loopexit64
  %35 = add nsw i32 %32, -1
  store i32 %35, ptr %6, align 4, !tbaa !210
  br label %36

36:                                               ; preds = %.loopexit64, %34
  %.not46 = icmp eq ptr %.1, null
  br i1 %.not46, label %37, label %.thread

37:                                               ; preds = %36
  %38 = load i64, ptr %2, align 8
  %39 = and i64 %38, 12582912
  %.not47 = icmp eq i64 %39, 0
  br i1 %.not47, label %.loopexit, label %.thread61

.thread:                                          ; preds = %36
  %40 = load i32, ptr %.1, align 8
  %41 = or i32 %40, 128
  store i32 %41, ptr %.1, align 8
  %42 = load i64, ptr %2, align 8
  %43 = and i64 %42, 12582912
  %.not4774 = icmp eq i64 %43, 0
  br i1 %.not4774, label %.loopexit, label %68

.thread55:                                        ; preds = %16
  %44 = and i64 %17, 12582912
  %.not4758 = icmp eq i64 %44, 0
  br i1 %.not4758, label %.loopexit, label %.thread61

.thread61:                                        ; preds = %37, %.thread55
  %45 = phi i64 [ %17, %.thread55 ], [ %38, %37 ]
  %46 = and i64 %45, -12582913
  %47 = or disjoint i64 %46, 8388608
  store i64 %47, ptr %2, align 8
  %48 = load ptr, ptr %10, align 8, !tbaa !293
  %49 = load ptr, ptr %0, align 8, !tbaa !271
  tail call void @free_commit_list(ptr noundef %49) #26
  store ptr null, ptr %0, align 8, !tbaa !271
  %50 = load i32, ptr %9, align 8, !tbaa !292
  %.not20.i = icmp eq i32 %50, 0
  br i1 %.not20.i, label %create_boundary_commit_list.exit, label %.lr.ph.i

.lr.ph.i:                                         ; preds = %.thread61, %60
  %51 = phi i32 [ %61, %60 ], [ %50, %.thread61 ]
  %indvars.iv.i = phi i64 [ %indvars.iv.next.i, %60 ], [ 0, %.thread61 ]
  %52 = getelementptr inbounds nuw %struct.object_array_entry, ptr %48, i64 %indvars.iv.i
  %53 = load ptr, ptr %52, align 8, !tbaa !294
  %.not.i = icmp eq ptr %53, null
  br i1 %.not.i, label %60, label %54

54:                                               ; preds = %.lr.ph.i
  %55 = load i32, ptr %53, align 8
  %56 = and i32 %55, 1664
  %or.cond.i = icmp eq i32 %56, 1024
  br i1 %or.cond.i, label %57, label %60

57:                                               ; preds = %54
  %58 = or disjoint i32 %55, 512
  store i32 %58, ptr %53, align 8
  %59 = tail call ptr @commit_list_insert(ptr noundef nonnull %53, ptr noundef nonnull %0) #26
  %.pre.i = load i32, ptr %9, align 8, !tbaa !292
  br label %60

60:                                               ; preds = %57, %54, %.lr.ph.i
  %61 = phi i32 [ %51, %54 ], [ %51, %.lr.ph.i ], [ %.pre.i, %57 ]
  %indvars.iv.next.i = add nuw nsw i64 %indvars.iv.i, 1
  %62 = zext i32 %61 to i64
  %63 = icmp samesign ult i64 %indvars.iv.next.i, %62
  br i1 %63, label %.lr.ph.i, label %create_boundary_commit_list.exit, !llvm.loop !403

create_boundary_commit_list.exit:                 ; preds = %60, %.thread61
  %64 = load i32, ptr %11, align 8, !tbaa !217
  tail call void @sort_in_topological_order(ptr noundef nonnull %0, i32 noundef %64) #26
  %65 = load i64, ptr %2, align 8
  %66 = and i64 %65, 12582912
  %67 = icmp eq i64 %66, 8388608
  br i1 %67, label %tailrecurse._crit_edge, label %16

68:                                               ; preds = %.thread
  %69 = getelementptr inbounds nuw i8, ptr %.1, i64 48
  %.03569 = load ptr, ptr %69, align 8, !tbaa !58
  %.not4870 = icmp eq ptr %.03569, null
  br i1 %.not4870, label %.loopexit, label %.lr.ph72

.lr.ph72:                                         ; preds = %68
  %70 = getelementptr inbounds nuw i8, ptr %0, i64 36
  br label %71

71:                                               ; preds = %.lr.ph72, %81
  %.03571 = phi ptr [ %.03569, %.lr.ph72 ], [ %.035, %81 ]
  %72 = load ptr, ptr %.03571, align 8, !tbaa !59
  %73 = load i32, ptr %72, align 4
  %74 = and i32 %73, 1152
  %.not49 = icmp eq i32 %74, 0
  br i1 %.not49, label %75, label %81

75:                                               ; preds = %71
  %76 = or disjoint i32 %73, 1024
  store i32 %76, ptr %72, align 4
  %77 = load i32, ptr %9, align 8, !tbaa !292
  %78 = load i32, ptr %70, align 4, !tbaa !404
  %79 = icmp eq i32 %77, %78
  br i1 %79, label %80, label %gc_boundary.exit

80:                                               ; preds = %75
  tail call void @object_array_filter(ptr noundef nonnull %9, ptr noundef nonnull @entry_unshown, ptr noundef null) #26
  br label %gc_boundary.exit

gc_boundary.exit:                                 ; preds = %75, %80
  tail call void @add_object_array(ptr noundef nonnull %72, ptr noundef null, ptr noundef nonnull %9) #26
  br label %81

81:                                               ; preds = %71, %gc_boundary.exit
  %82 = getelementptr inbounds nuw i8, ptr %.03571, i64 8
  %.035 = load ptr, ptr %82, align 8, !tbaa !58
  %.not48 = icmp eq ptr %.035, null
  br i1 %.not48, label %.loopexit, label %71, !llvm.loop !405

.loopexit:                                        ; preds = %.thread55, %37, %81, %.thread, %68, %tailrecurse._crit_edge, %13
  %.0 = phi ptr [ %12, %13 ], [ null, %tailrecurse._crit_edge ], [ %.1, %68 ], [ %.1, %.thread ], [ %.1, %81 ], [ null, %.thread55 ], [ %.1, %37 ]
  ret ptr %.0
}